; Function Attrs: nofree nounwind memory(read, inaccessiblemem: none) uwtable
define dso_local noundef ptr @namelist_find(ptr nocapture noundef readonly %0, ptr nocapture noundef readonly %1) local_unnamed_addr #5 {
  %3 = getelementptr inbounds i8, ptr %0, i64 8
  %4 = load i32, ptr %3, align 8
  %5 = icmp sgt i32 %4, 0
  br i1 %5, label %.lr.ph, label %._crit_edge

.lr.ph:                                           ; preds = %2
  %6 = load ptr, ptr %0, align 8
  %wide.trip.count = zext nneg i32 %4 to i64
  br label %8

7:                                                ; preds = %8
  %indvars.iv.next = add nuw nsw i64 %indvars.iv, 1
  %exitcond.not = icmp eq i64 %indvars.iv.next, %wide.trip.count
  br i1 %exitcond.not, label %._crit_edge, label %8, !llvm.loop !9

8:                                                ; preds = %.lr.ph, %7
  %indvars.iv = phi i64 [ 0, %.lr.ph ], [ %indvars.iv.next, %7 ]
  %9 = getelementptr %struct.namelist_entry_t, ptr %6, i64 %indvars.iv
  %10 = load ptr, ptr %9, align 8
  %11 = tail call i32 @strcmp(ptr noundef nonnull dereferenceable(1) %10, ptr noundef nonnull dereferenceable(1) %1) #17
  %.not = icmp eq i32 %11, 0
  br i1 %.not, label %._crit_edge, label %7

._crit_edge:                                      ; preds = %8, %7, %2
  %.0 = phi ptr [ null, %2 ], [ null, %7 ], [ %9, %8 ]
  ret ptr %.0
}